target datalayout = "e-m:e-p270:32:32-p271:32:32-p272:64:64-i64:64-i128:128-f80:128-n8:16:32:64-S128"
target triple = "x86_64-pc-linux-gnu"

%struct.H5B_class_t = type { i32, i64, ptr, ptr, ptr, ptr, ptr, ptr, i8, i8, i32, ptr, ptr, ptr, ptr }
%struct.H5O_stab_t = type { i64, i64 }
%struct.H5O_loc_t = type { ptr, i64, i8 }
%struct.H5G_bt_it_lbi_t = type { %struct.H5G_bt_it_idx_common_t, ptr, ptr, i8 }
%struct.H5G_bt_it_idx_common_t = type { i64, i64, ptr }

@H5B_SNODE = external global [1 x %struct.H5B_class_t], align 16
@.str = private unnamed_addr constant [101 x i8] c"generated/home/dtcxzyw/WorkSpace/Projects/compilers/llvm-opt-benchmark/bench/hdf5/hdf5/src/H5Gstab.c\00", align 1
@H5E_SYM_g = external global i64, align 8
@H5E_CANTINIT_g = external global i64, align 8
@H5E_PROTECT_g = external global i64, align 8
@.str.3 = private unnamed_addr constant [36 x i8] c"unable to protect symbol table heap\00", align 1
@.str.6 = private unnamed_addr constant [38 x i8] c"unable to unprotect symbol table heap\00", align 1
@H5E_NOTFOUND_g = external global i64, align 8
@.str.16 = private unnamed_addr constant [39 x i8] c"unable to determine local heap address\00", align 1
@.str.17 = private unnamed_addr constant [26 x i8] c"iteration operator failed\00", align 1
@H5E_ARGS_g = external global i64, align 8
@.str.20 = private unnamed_addr constant [19 x i8] c"index out of bound\00", align 1
@H5E_BADTYPE_g = external global i64, align 8
@__func__.H5G__stab_lookup_by_idx = private unnamed_addr constant [24 x i8] c"H5G__stab_lookup_by_idx\00", align 1

; Function Attrs: nounwind uwtable
define i32 @H5G__stab_lookup_by_idx(ptr noundef %0, i32 noundef %1, i64 noundef %2, ptr noundef %3) #0 {
  %5 = alloca ptr, align 8
  %6 = alloca i32, align 4
  %7 = alloca i64, align 8
  %8 = alloca ptr, align 8
  %9 = alloca ptr, align 8
  %10 = alloca %struct.H5G_bt_it_lbi_t, align 8
  %11 = alloca %struct.H5O_stab_t, align 8
  %12 = alloca i32, align 4
  %13 = alloca i8, align 1
  %14 = alloca i64, align 8
  store ptr %0, ptr %5, align 8
  store i32 %1, ptr %6, align 4
  store i64 %2, ptr %7, align 8
  store ptr %3, ptr %8, align 8
  store ptr null, ptr %9, align 8
  store i32 0, ptr %12, align 4
  store i8 0, ptr %13, align 1
  %15 = load ptr, ptr %5, align 8
  %16 = call ptr @H5O_msg_read(ptr noundef %15, i32 noundef 17, ptr noundef %11)
  %17 = icmp eq ptr null, %16
  br i1 %17, label %18, label %33

18:                                               ; preds = %4
  br label %19

19:                                               ; preds = %18
  br label %20

20:                                               ; preds = %19
  br label %21

21:                                               ; preds = %20
  %22 = load i64, ptr @H5E_SYM_g, align 8
  %23 = load i64, ptr @H5E_NOTFOUND_g, align 8
  %24 = call i32 (ptr, ptr, i32, i64, i64, ptr, ...) @H5E_printf_stack(ptr noundef @.str, ptr noundef @__func__.H5G__stab_lookup_by_idx, i32 noundef 895, i64 noundef %22, i64 noundef %23, ptr noundef @.str.16)
  br label %25

25:                                               ; preds = %21
  store i8 1, ptr %13, align 1
  %26 = load i8, ptr %13, align 1
  %27 = trunc i8 %26 to i1
  %28 = zext i1 %27 to i8
  store i8 %28, ptr %13, align 1
  br label %29

29:                                               ; preds = %25
  br label %30

30:                                               ; preds = %29
  store i32 -1, ptr %12, align 4
  br label %142

31:                                               ; No predecessors!
  br label %32

32:                                               ; preds = %31
  br label %33

33:                                               ; preds = %32, %4
  %34 = load ptr, ptr %5, align 8
  %35 = getelementptr inbounds %struct.H5O_loc_t, ptr %34, i32 0, i32 0
  %36 = load ptr, ptr %35, align 8
  %37 = getelementptr inbounds %struct.H5O_stab_t, ptr %11, i32 0, i32 1
  %38 = load i64, ptr %37, align 8
  %39 = call ptr @H5HL_protect(ptr noundef %36, i64 noundef %38, i32 noundef 128)
  store ptr %39, ptr %9, align 8
  %40 = icmp eq ptr null, %39
  br i1 %40, label %41, label %56

41:                                               ; preds = %33
  br label %42

42:                                               ; preds = %41
  br label %43

43:                                               ; preds = %42
  br label %44

44:                                               ; preds = %43
  %45 = load i64, ptr @H5E_SYM_g, align 8
  %46 = load i64, ptr @H5E_PROTECT_g, align 8
  %47 = call i32 (ptr, ptr, i32, i64, i64, ptr, ...) @H5E_printf_stack(ptr noundef @.str, ptr noundef @__func__.H5G__stab_lookup_by_idx, i32 noundef 899, i64 noundef %45, i64 noundef %46, ptr noundef @.str.3)
  br label %48

48:                                               ; preds = %44
  store i8 1, ptr %13, align 1
  %49 = load i8, ptr %13, align 1
  %50 = trunc i8 %49 to i1
  %51 = zext i1 %50 to i8
  store i8 %51, ptr %13, align 1
  br label %52

52:                                               ; preds = %48
  br label %53

53:                                               ; preds = %52
  store i32 -1, ptr %12, align 4
  br label %142

54:                                               ; No predecessors!
  br label %55

55:                                               ; preds = %54
  br label %56

56:                                               ; preds = %55, %33
  %57 = load i32, ptr %6, align 4
  %58 = icmp eq i32 %57, 1
  br i1 %58, label %59, label %87

59:                                               ; preds = %56
  store i64 0, ptr %14, align 8
  %60 = load ptr, ptr %5, align 8
  %61 = getelementptr inbounds %struct.H5O_loc_t, ptr %60, i32 0, i32 0
  %62 = load ptr, ptr %61, align 8
  %63 = getelementptr inbounds %struct.H5O_stab_t, ptr %11, i32 0, i32 0
  %64 = load i64, ptr %63, align 8
  %65 = call i32 @H5B_iterate(ptr noundef %62, ptr noundef @H5B_SNODE, i64 noundef %64, ptr noundef @H5G__node_sumup, ptr noundef %14)
  %66 = icmp slt i32 %65, 0
  br i1 %66, label %67, label %82

67:                                               ; preds = %59
  br label %68

68:                                               ; preds = %67
  br label %69

69:                                               ; preds = %68
  br label %70

70:                                               ; preds = %69
  %71 = load i64, ptr @H5E_SYM_g, align 8
  %72 = load i64, ptr @H5E_CANTINIT_g, align 8
  %73 = call i32 (ptr, ptr, i32, i64, i64, ptr, ...) @H5E_printf_stack(ptr noundef @.str, ptr noundef @__func__.H5G__stab_lookup_by_idx, i32 noundef 907, i64 noundef %71, i64 noundef %72, ptr noundef @.str.17)
  br label %74

74:                                               ; preds = %70
  store i8 1, ptr %13, align 1
  %75 = load i8, ptr %13, align 1
  %76 = trunc i8 %75 to i1
  %77 = zext i1 %76 to i8
  store i8 %77, ptr %13, align 1
  br label %78

78:                                               ; preds = %74
  br label %79

79:                                               ; preds = %78
  store i32 -1, ptr %12, align 4
  br label %142

80:                                               ; No predecessors!
  br label %81

81:                                               ; preds = %80
  br label %82

82:                                               ; preds = %81, %59
  %83 = load i64, ptr %14, align 8
  %84 = load i64, ptr %7, align 8
  %85 = add i64 %84, 1
  %86 = sub i64 %83, %85
  store i64 %86, ptr %7, align 8
  br label %87

87:                                               ; preds = %82, %56
  %88 = load i64, ptr %7, align 8
  %89 = getelementptr inbounds %struct.H5G_bt_it_lbi_t, ptr %10, i32 0, i32 0
  %90 = getelementptr inbounds %struct.H5G_bt_it_idx_common_t, ptr %89, i32 0, i32 0
  store i64 %88, ptr %90, align 8
  %91 = getelementptr inbounds %struct.H5G_bt_it_lbi_t, ptr %10, i32 0, i32 0
  %92 = getelementptr inbounds %struct.H5G_bt_it_idx_common_t, ptr %91, i32 0, i32 1
  store i64 0, ptr %92, align 8
  %93 = getelementptr inbounds %struct.H5G_bt_it_lbi_t, ptr %10, i32 0, i32 0
  %94 = getelementptr inbounds %struct.H5G_bt_it_idx_common_t, ptr %93, i32 0, i32 2
  store ptr @H5G__stab_lookup_by_idx_cb, ptr %94, align 8
  %95 = load ptr, ptr %9, align 8
  %96 = getelementptr inbounds %struct.H5G_bt_it_lbi_t, ptr %10, i32 0, i32 1
  store ptr %95, ptr %96, align 8
  %97 = load ptr, ptr %8, align 8
  %98 = getelementptr inbounds %struct.H5G_bt_it_lbi_t, ptr %10, i32 0, i32 2
  store ptr %97, ptr %98, align 8
  %99 = getelementptr inbounds %struct.H5G_bt_it_lbi_t, ptr %10, i32 0, i32 3
  store i8 0, ptr %99, align 8
  %100 = load ptr, ptr %5, align 8
  %101 = getelementptr inbounds %struct.H5O_loc_t, ptr %100, i32 0, i32 0
  %102 = load ptr, ptr %101, align 8
  %103 = getelementptr inbounds %struct.H5O_stab_t, ptr %11, i32 0, i32 0
  %104 = load i64, ptr %103, align 8
  %105 = call i32 @H5B_iterate(ptr noundef %102, ptr noundef @H5B_SNODE, i64 noundef %104, ptr noundef @H5G__node_by_idx, ptr noundef %10)
  %106 = icmp slt i32 %105, 0
  br i1 %106, label %107, label %122

107:                                              ; preds = %87
  br label %108

108:                                              ; preds = %107
  br label %109

109:                                              ; preds = %108
  br label %110

110:                                              ; preds = %109
  %111 = load i64, ptr @H5E_ARGS_g, align 8
  %112 = load i64, ptr @H5E_BADTYPE_g, align 8
  %113 = call i32 (ptr, ptr, i32, i64, i64, ptr, ...) @H5E_printf_stack(ptr noundef @.str, ptr noundef @__func__.H5G__stab_lookup_by_idx, i32 noundef 923, i64 noundef %111, i64 noundef %112, ptr noundef @.str.17)
  br label %114

114:                                              ; preds = %110
  store i8 1, ptr %13, align 1
  %115 = load i8, ptr %13, align 1
  %116 = trunc i8 %115 to i1
  %117 = zext i1 %116 to i8
  store i8 %117, ptr %13, align 1
  br label %118

118:                                              ; preds = %114
  br label %119

119:                                              ; preds = %118
  store i32 -1, ptr %12, align 4
  br label %142

120:                                              ; No predecessors!
  br label %121

121:                                              ; preds = %120
  br label %122

122:                                              ; preds = %121, %87
  %123 = getelementptr inbounds %struct.H5G_bt_it_lbi_t, ptr %10, i32 0, i32 3
  %124 = load i8, ptr %123, align 8
  %125 = trunc i8 %124 to i1
  br i1 %125, label %141, label %126

126:                                              ; preds = %122
  br label %127

127:                                              ; preds = %126
  br label %128

128:                                              ; preds = %127
  br label %129

129:                                              ; preds = %128
  %130 = load i64, ptr @H5E_ARGS_g, align 8
  %131 = load i64, ptr @H5E_BADTYPE_g, align 8
  %132 = call i32 (ptr, ptr, i32, i64, i64, ptr, ...) @H5E_printf_stack(ptr noundef @.str, ptr noundef @__func__.H5G__stab_lookup_by_idx, i32 noundef 927, i64 noundef %130, i64 noundef %131, ptr noundef @.str.20)
  br label %133

133:                                              ; preds = %129
  store i8 1, ptr %13, align 1
  %134 = load i8, ptr %13, align 1
  %135 = trunc i8 %134 to i1
  %136 = zext i1 %135 to i8
  store i8 %136, ptr %13, align 1
  br label %137

137:                                              ; preds = %133
  br label %138

138:                                              ; preds = %137
  store i32 -1, ptr %12, align 4
  br label %142

139:                                              ; No predecessors!
  br label %140

140:                                              ; preds = %139
  br label %141

141:                                              ; preds = %140, %122
  br label %142

142:                                              ; preds = %141, %138, %119, %79, %53, %30
  %143 = load ptr, ptr %9, align 8
  %144 = icmp ne ptr %143, null
  br i1 %144, label %145, label %162

145:                                              ; preds = %142
  %146 = load ptr, ptr %9, align 8
  %147 = call i32 @H5HL_unprotect(ptr noundef %146)
  %148 = icmp slt i32 %147, 0
  br i1 %148, label %149, label %162

149:                                              ; preds = %145
  br label %150

150:                                              ; preds = %149
  br label %151

151:                                              ; preds = %150
  br label %152

152:                                              ; preds = %151
  %153 = load i64, ptr @H5E_SYM_g, align 8
  %154 = load i64, ptr @H5E_PROTECT_g, align 8
  %155 = call i32 (ptr, ptr, i32, i64, i64, ptr, ...) @H5E_printf_stack(ptr noundef @.str, ptr noundef @__func__.H5G__stab_lookup_by_idx, i32 noundef 932, i64 noundef %153, i64 noundef %154, ptr noundef @.str.6)
  br label %156

156:                                              ; preds = %152
  store i8 1, ptr %13, align 1
  %157 = load i8, ptr %13, align 1
  %158 = trunc i8 %157 to i1
  %159 = zext i1 %158 to i8
  store i8 %159, ptr %13, align 1
  br label %160

160:                                              ; preds = %156
  store i32 -1, ptr %12, align 4
  br label %161

161:                                              ; preds = %160
  br label %162

162:                                              ; preds = %161, %145, %142
  %163 = load i32, ptr %12, align 4
  ret i32 %163
}