; Function Attrs: nounwind uwtable
define range(i32 -1, 1) i32 @H5G__stab_lookup_by_idx(ptr noundef %0, i32 noundef %1, i64 noundef %2, ptr noundef %3) local_unnamed_addr #0 {
  %5 = alloca %struct.H5G_bt_it_lbi_t, align 8
  %6 = alloca %struct.H5O_stab_t, align 8
  %7 = alloca i64, align 8
  %8 = call ptr @H5O_msg_read(ptr noundef %0, i32 noundef 17, ptr noundef nonnull %6) #6
  %9 = icmp eq ptr %8, null
  br i1 %9, label %10, label %14

10:                                               ; preds = %4
  %11 = load i64, ptr @H5E_SYM_g, align 8
  %12 = load i64, ptr @H5E_NOTFOUND_g, align 8
  %13 = call i32 (ptr, ptr, i32, i64, i64, ptr, ...) @H5E_printf_stack(ptr noundef nonnull @.str, ptr noundef nonnull @__func__.H5G__stab_lookup_by_idx, i32 noundef 895, i64 noundef %11, i64 noundef %12, ptr noundef nonnull @.str.16) #6
  br label %66

14:                                               ; preds = %4
  %15 = load ptr, ptr %0, align 8
  %16 = getelementptr inbounds i8, ptr %6, i64 8
  %17 = load i64, ptr %16, align 8
  %18 = call ptr @H5HL_protect(ptr noundef %15, i64 noundef %17, i32 noundef 128) #6
  %19 = icmp eq ptr %18, null
  br i1 %19, label %20, label %24

20:                                               ; preds = %14
  %21 = load i64, ptr @H5E_SYM_g, align 8
  %22 = load i64, ptr @H5E_PROTECT_g, align 8
  %23 = call i32 (ptr, ptr, i32, i64, i64, ptr, ...) @H5E_printf_stack(ptr noundef nonnull @.str, ptr noundef nonnull @__func__.H5G__stab_lookup_by_idx, i32 noundef 899, i64 noundef %21, i64 noundef %22, ptr noundef nonnull @.str.3) #6
  br label %66

24:                                               ; preds = %14
  %25 = icmp eq i32 %1, 1
  br i1 %25, label %26, label %38

26:                                               ; preds = %24
  store i64 0, ptr %7, align 8
  %27 = load ptr, ptr %0, align 8
  %28 = load i64, ptr %6, align 8
  %29 = call i32 @H5B_iterate(ptr noundef %27, ptr noundef nonnull @H5B_SNODE, i64 noundef %28, ptr noundef nonnull @H5G__node_sumup, ptr noundef nonnull %7) #6
  %30 = icmp slt i32 %29, 0
  br i1 %30, label %31, label %35

31:                                               ; preds = %26
  %32 = load i64, ptr @H5E_SYM_g, align 8
  %33 = load i64, ptr @H5E_CANTINIT_g, align 8
  %34 = call i32 (ptr, ptr, i32, i64, i64, ptr, ...) @H5E_printf_stack(ptr noundef nonnull @.str, ptr noundef nonnull @__func__.H5G__stab_lookup_by_idx, i32 noundef 907, i64 noundef %32, i64 noundef %33, ptr noundef nonnull @.str.17) #6
  br label %59

35:                                               ; preds = %26
  %36 = load i64, ptr %7, align 8
  %.neg = xor i64 %2, -1
  %37 = add i64 %36, %.neg
  br label %38

38:                                               ; preds = %35, %24
  %.018 = phi i64 [ %37, %35 ], [ %2, %24 ]
  store i64 %.018, ptr %5, align 8
  %39 = getelementptr inbounds i8, ptr %5, i64 8
  store i64 0, ptr %39, align 8
  %40 = getelementptr inbounds i8, ptr %5, i64 16
  store ptr @H5G__stab_lookup_by_idx_cb, ptr %40, align 8
  %41 = getelementptr inbounds i8, ptr %5, i64 24
  store ptr %18, ptr %41, align 8
  %42 = getelementptr inbounds i8, ptr %5, i64 32
  store ptr %3, ptr %42, align 8
  %43 = getelementptr inbounds i8, ptr %5, i64 40
  store i8 0, ptr %43, align 8
  %44 = load ptr, ptr %0, align 8
  %45 = load i64, ptr %6, align 8
  %46 = call i32 @H5B_iterate(ptr noundef %44, ptr noundef nonnull @H5B_SNODE, i64 noundef %45, ptr noundef nonnull @H5G__node_by_idx, ptr noundef nonnull %5) #6
  %47 = icmp slt i32 %46, 0
  br i1 %47, label %48, label %52

48:                                               ; preds = %38
  %49 = load i64, ptr @H5E_ARGS_g, align 8
  %50 = load i64, ptr @H5E_BADTYPE_g, align 8
  %51 = call i32 (ptr, ptr, i32, i64, i64, ptr, ...) @H5E_printf_stack(ptr noundef nonnull @.str, ptr noundef nonnull @__func__.H5G__stab_lookup_by_idx, i32 noundef 923, i64 noundef %49, i64 noundef %50, ptr noundef nonnull @.str.17) #6
  br label %59

52:                                               ; preds = %38
  %53 = load i8, ptr %43, align 8
  %54 = trunc i8 %53 to i1
  br i1 %54, label %59, label %55

55:                                               ; preds = %52
  %56 = load i64, ptr @H5E_ARGS_g, align 8
  %57 = load i64, ptr @H5E_BADTYPE_g, align 8
  %58 = call i32 (ptr, ptr, i32, i64, i64, ptr, ...) @H5E_printf_stack(ptr noundef nonnull @.str, ptr noundef nonnull @__func__.H5G__stab_lookup_by_idx, i32 noundef 927, i64 noundef %56, i64 noundef %57, ptr noundef nonnull @.str.20) #6
  br label %59

59:                                               ; preds = %31, %48, %52, %55
  %.0.ph = phi i32 [ -1, %55 ], [ 0, %52 ], [ -1, %48 ], [ -1, %31 ]
  %60 = call i32 @H5HL_unprotect(ptr noundef nonnull %18) #6
  %61 = icmp slt i32 %60, 0
  br i1 %61, label %62, label %66

62:                                               ; preds = %59
  %63 = load i64, ptr @H5E_SYM_g, align 8
  %64 = load i64, ptr @H5E_PROTECT_g, align 8
  %65 = call i32 (ptr, ptr, i32, i64, i64, ptr, ...) @H5E_printf_stack(ptr noundef nonnull @.str, ptr noundef nonnull @__func__.H5G__stab_lookup_by_idx, i32 noundef 932, i64 noundef %63, i64 noundef %64, ptr noundef nonnull @.str.6) #6
  br label %66

66:                                               ; preds = %10, %20, %62, %59
  %.1 = phi i32 [ -1, %62 ], [ %.0.ph, %59 ], [ -1, %10 ], [ -1, %20 ]
  ret i32 %.1
}